(dp1
S'id'
p2
(dp3
S'type'
p4
S'id'
p5
sS'sortable'
p6
I1
sS'sql'
p7
S'INTEGER PRIMARY KEY AUTOINCREMENT'
p8
ssS'description'
p9
(dp10
g4
S'string'
p11
sg6
I4
sg7
S'CHAR(512)'
p12
ssS'fieldlist'
p13
(dp14
g4
g11
sg6
I5
sg7
S'CHAR(512)'
p15
ssS'dbase'
p16
(dp17
g4
g11
sg6
I3
sg7
S'CHAR(512)'
p18
ssS'idlist'
p19
(dp20
g4
g11
sg6
I2
sg7
S'CHAR(512)'
p21
ss.